
nand_elf:     file format elf32-littlearm


Disassembly of section firtst:

00000000 <_start>:
   0:	e3a0da01 	mov	sp, #4096	; 0x1000
   4:	eb000012 	bl	54 <disable_watch_dog>
   8:	eb000015 	bl	64 <memsetup>
   c:	eb0000b8 	bl	2f4 <nand_init>
  10:	e3a00203 	mov	r0, #805306368	; 0x30000000
  14:	e3a01a01 	mov	r1, #4096	; 0x1000
  18:	e3a02b01 	mov	r2, #1024	; 0x400
  1c:	eb0000fb 	bl	410 <nand_read>
  20:	e3a0d30d 	mov	sp, #872415232	; 0x34000000
  24:	e59fe004 	ldr	lr, [pc, #4]	; 30 <halt_loop+0x4>
  28:	e59ff004 	ldr	pc, [pc, #4]	; 34 <halt_loop+0x8>

0000002c <halt_loop>:
  2c:	eafffffe 	b	2c <halt_loop>
  30:	0000002c 	andeq	r0, r0, ip, lsr #32
  34:	30000004 	andcc	r0, r0, r4
  38:	00001941 	andeq	r1, r0, r1, asr #18
  3c:	61656100 	cmnvs	r5, r0, lsl #2
  40:	01006962 	tsteq	r0, r2, ror #18
  44:	0000000f 	andeq	r0, r0, pc
  48:	00543405 	subseq	r3, r4, r5, lsl #8
  4c:	01080206 	tsteq	r8, r6, lsl #4
  50:	00000109 	andeq	r0, r0, r9, lsl #2

00000054 <disable_watch_dog>:
  54:	e3a02000 	mov	r2, #0
  58:	e3a03453 	mov	r3, #1392508928	; 0x53000000
  5c:	e5832000 	str	r2, [r3]
  60:	e12fff1e 	bx	lr

00000064 <memsetup>:
  64:	e92d0030 	push	{r4, r5}
  68:	e24dd038 	sub	sp, sp, #56	; 0x38
  6c:	e59f504c 	ldr	r5, [pc, #76]	; c0 <memsetup+0x5c>
  70:	e28dc004 	add	ip, sp, #4
  74:	e1a0400c 	mov	r4, ip
  78:	e8b5000f 	ldm	r5!, {r0, r1, r2, r3}
  7c:	e8a4000f 	stmia	r4!, {r0, r1, r2, r3}
  80:	e8b5000f 	ldm	r5!, {r0, r1, r2, r3}
  84:	e8a4000f 	stmia	r4!, {r0, r1, r2, r3}
  88:	e8b5000f 	ldm	r5!, {r0, r1, r2, r3}
  8c:	e8a4000f 	stmia	r4!, {r0, r1, r2, r3}
  90:	e5952000 	ldr	r2, [r5]
  94:	e3a03000 	mov	r3, #0
  98:	e5842000 	str	r2, [r4]
  9c:	e2832312 	add	r2, r3, #1207959552	; 0x48000000
  a0:	e79c1003 	ldr	r1, [ip, r3]
  a4:	e2833004 	add	r3, r3, #4
  a8:	e3530034 	cmp	r3, #52	; 0x34
  ac:	e5821000 	str	r1, [r2]
  b0:	1afffff9 	bne	9c <memsetup+0x38>
  b4:	e28dd038 	add	sp, sp, #56	; 0x38
  b8:	e8bd0030 	pop	{r4, r5}
  bc:	e12fff1e 	bx	lr
  c0:	000000c4 	andeq	r0, r0, r4, asr #1

000000c4 <C.0.1270>:
  c4:	22011110 	andcs	r1, r1, #4
  c8:	00000700 	andeq	r0, r0, r0, lsl #14
  cc:	00000700 	andeq	r0, r0, r0, lsl #14
  d0:	00000700 	andeq	r0, r0, r0, lsl #14
  d4:	00000700 	andeq	r0, r0, r0, lsl #14
  d8:	00000700 	andeq	r0, r0, r0, lsl #14
  dc:	00000700 	andeq	r0, r0, r0, lsl #14
  e0:	00018005 	andeq	r8, r1, r5
  e4:	00018005 	andeq	r8, r1, r5
  e8:	008c07a3 	addeq	r0, ip, r3, lsr #15
  ec:	000000b1 	strheq	r0, [r0], -r1
  f0:	00000030 	andeq	r0, r0, r0, lsr r0
  f4:	00000030 	andeq	r0, r0, r0, lsr r0
  f8:	3a434347 	bcc	10d0e1c <nand_chip+0x10d094c>
  fc:	74632820 	strbtvc	r2, [r3], #-2080	; 0x820
 100:	312d676e 	teqcc	sp, lr, ror #14
 104:	312e362e 	teqcc	lr, lr, lsr #12
 108:	2e342029 	cdpcs	0, 3, cr2, cr4, cr9, {1}
 10c:	00332e34 	eorseq	r2, r3, r4, lsr lr
 110:	00002941 	andeq	r2, r0, r1, asr #18
 114:	61656100 	cmnvs	r5, r0, lsl #2
 118:	01006962 	tsteq	r0, r2, ror #18
 11c:	0000001f 	andeq	r0, r0, pc, lsl r0
 120:	00543405 	subseq	r3, r4, r5, lsl #8
 124:	01080206 	tsteq	r8, r6, lsl #4
 128:	04120109 	ldreq	r0, [r2], #-265	; 0x109
 12c:	01150114 	tsteq	r5, r4, lsl r1
 130:	01180317 	tsteq	r8, r7, lsl r3
 134:	021a0119 	andseq	r0, sl, #1073741830	; 0x40000006
 138:	0000021e 	andeq	r0, r0, lr, lsl r2

0000013c <s3c2410_nand_reset>:
 13c:	e3a0344e 	mov	r3, #1308622848	; 0x4e000000
 140:	e5931000 	ldr	r1, [r3]
 144:	e59f2030 	ldr	r2, [pc, #48]	; 17c <s3c2410_nand_reset+0x40>
 148:	e3c11b02 	bic	r1, r1, #2048	; 0x800
 14c:	e5831000 	str	r1, [r3]
 150:	e3e01000 	mvn	r1, #0
 154:	e2833004 	add	r3, r3, #4
 158:	e5c31000 	strb	r1, [r3]
 15c:	e5d23000 	ldrb	r3, [r2]
 160:	e3130001 	tst	r3, #1
 164:	0afffffc 	beq	15c <s3c2410_nand_reset+0x20>
 168:	e3a0344e 	mov	r3, #1308622848	; 0x4e000000
 16c:	e5932000 	ldr	r2, [r3]
 170:	e3822b02 	orr	r2, r2, #2048	; 0x800
 174:	e5832000 	str	r2, [r3]
 178:	e12fff1e 	bx	lr
 17c:	4e000010 	mcrmi	0, 0, r0, cr0, cr0, {0}

00000180 <s3c2410_wait_idle>:
 180:	e59f200c 	ldr	r2, [pc, #12]	; 194 <s3c2410_wait_idle+0x14>
 184:	e5d23000 	ldrb	r3, [r2]
 188:	e3130001 	tst	r3, #1
 18c:	0afffffc 	beq	184 <s3c2410_wait_idle+0x4>
 190:	e12fff1e 	bx	lr
 194:	4e000010 	mcrmi	0, 0, r0, cr0, cr0, {0}

00000198 <s3c2410_nand_select_chip>:
 198:	e3a0344e 	mov	r3, #1308622848	; 0x4e000000
 19c:	e5932000 	ldr	r2, [r3]
 1a0:	e3c22b02 	bic	r2, r2, #2048	; 0x800
 1a4:	e5832000 	str	r2, [r3]
 1a8:	e12fff1e 	bx	lr

000001ac <s3c2410_nand_deselect_chip>:
 1ac:	e3a0344e 	mov	r3, #1308622848	; 0x4e000000
 1b0:	e5932000 	ldr	r2, [r3]
 1b4:	e3822b02 	orr	r2, r2, #2048	; 0x800
 1b8:	e5832000 	str	r2, [r3]
 1bc:	e12fff1e 	bx	lr

000001c0 <s3c2410_write_cmd>:
 1c0:	e59f3008 	ldr	r3, [pc, #8]	; 1d0 <s3c2410_write_cmd+0x10>
 1c4:	e20000ff 	and	r0, r0, #255	; 0xff
 1c8:	e5c30000 	strb	r0, [r3]
 1cc:	e12fff1e 	bx	lr
 1d0:	4e000004 	cdpmi	0, 0, cr0, cr0, cr4, {0}

000001d4 <s3c2410_write_addr>:
 1d4:	e59f3028 	ldr	r3, [pc, #40]	; 204 <s3c2410_write_addr+0x30>
 1d8:	e1a0c4a0 	lsr	ip, r0, #9
 1dc:	e1a018a0 	lsr	r1, r0, #17
 1e0:	e1a02ca0 	lsr	r2, r0, #25
 1e4:	e20cc0ff 	and	ip, ip, #255	; 0xff
 1e8:	e20110ff 	and	r1, r1, #255	; 0xff
 1ec:	e20000ff 	and	r0, r0, #255	; 0xff
 1f0:	e5c30000 	strb	r0, [r3]
 1f4:	e5c3c000 	strb	ip, [r3]
 1f8:	e5c31000 	strb	r1, [r3]
 1fc:	e5c32000 	strb	r2, [r3]
 200:	e12fff1e 	bx	lr
 204:	4e000008 	cdpmi	0, 0, cr0, cr0, cr8, {0}

00000208 <s3c2410_read_data>:
 208:	e59f3004 	ldr	r3, [pc, #4]	; 214 <s3c2410_read_data+0xc>
 20c:	e5d30000 	ldrb	r0, [r3]
 210:	e12fff1e 	bx	lr
 214:	4e00000c 	cdpmi	0, 0, cr0, cr0, cr12, {0}

00000218 <s3c2440_nand_reset>:
 218:	e3a0344e 	mov	r3, #1308622848	; 0x4e000000
 21c:	e5931004 	ldr	r1, [r3, #4]
 220:	e59f2030 	ldr	r2, [pc, #48]	; 258 <s3c2440_nand_reset+0x40>
 224:	e3c11002 	bic	r1, r1, #2
 228:	e5831004 	str	r1, [r3, #4]
 22c:	e3e01000 	mvn	r1, #0
 230:	e2833008 	add	r3, r3, #8
 234:	e5c31000 	strb	r1, [r3]
 238:	e5d23000 	ldrb	r3, [r2]
 23c:	e3130001 	tst	r3, #1
 240:	0afffffc 	beq	238 <s3c2440_nand_reset+0x20>
 244:	e3a0344e 	mov	r3, #1308622848	; 0x4e000000
 248:	e5932004 	ldr	r2, [r3, #4]
 24c:	e3822002 	orr	r2, r2, #2
 250:	e5832004 	str	r2, [r3, #4]
 254:	e12fff1e 	bx	lr
 258:	4e000020 	cdpmi	0, 0, cr0, cr0, cr0, {1}

0000025c <s3c2440_wait_idle>:
 25c:	e59f200c 	ldr	r2, [pc, #12]	; 270 <s3c2440_wait_idle+0x14>
 260:	e5d23000 	ldrb	r3, [r2]
 264:	e3130001 	tst	r3, #1
 268:	0afffffc 	beq	260 <s3c2440_wait_idle+0x4>
 26c:	e12fff1e 	bx	lr
 270:	4e000020 	cdpmi	0, 0, cr0, cr0, cr0, {1}

00000274 <s3c2440_nand_select_chip>:
 274:	e3a0344e 	mov	r3, #1308622848	; 0x4e000000
 278:	e5932004 	ldr	r2, [r3, #4]
 27c:	e3c22002 	bic	r2, r2, #2
 280:	e5832004 	str	r2, [r3, #4]
 284:	e12fff1e 	bx	lr

00000288 <s3c2440_nand_deselect_chip>:
 288:	e3a0344e 	mov	r3, #1308622848	; 0x4e000000
 28c:	e5932004 	ldr	r2, [r3, #4]
 290:	e3822002 	orr	r2, r2, #2
 294:	e5832004 	str	r2, [r3, #4]
 298:	e12fff1e 	bx	lr

0000029c <s3c2440_write_cmd>:
 29c:	e59f3008 	ldr	r3, [pc, #8]	; 2ac <s3c2440_write_cmd+0x10>
 2a0:	e20000ff 	and	r0, r0, #255	; 0xff
 2a4:	e5c30000 	strb	r0, [r3]
 2a8:	e12fff1e 	bx	lr
 2ac:	4e000008 	cdpmi	0, 0, cr0, cr0, cr8, {0}

000002b0 <s3c2440_write_addr>:
 2b0:	e59f3028 	ldr	r3, [pc, #40]	; 2e0 <s3c2440_write_addr+0x30>
 2b4:	e1a0c4a0 	lsr	ip, r0, #9
 2b8:	e1a018a0 	lsr	r1, r0, #17
 2bc:	e1a02ca0 	lsr	r2, r0, #25
 2c0:	e20cc0ff 	and	ip, ip, #255	; 0xff
 2c4:	e20110ff 	and	r1, r1, #255	; 0xff
 2c8:	e20000ff 	and	r0, r0, #255	; 0xff
 2cc:	e5c30000 	strb	r0, [r3]
 2d0:	e5c3c000 	strb	ip, [r3]
 2d4:	e5c31000 	strb	r1, [r3]
 2d8:	e5c32000 	strb	r2, [r3]
 2dc:	e12fff1e 	bx	lr
 2e0:	4e00000c 	cdpmi	0, 0, cr0, cr0, cr12, {0}

000002e4 <s3c2440_read_data>:
 2e4:	e59f3004 	ldr	r3, [pc, #4]	; 2f0 <s3c2440_read_data+0xc>
 2e8:	e5d30000 	ldrb	r0, [r3]
 2ec:	e12fff1e 	bx	lr
 2f0:	4e000010 	mcrmi	0, 0, r0, cr0, cr0, {0}

000002f4 <nand_init>:
 2f4:	e3a03456 	mov	r3, #1442840576	; 0x56000000
 2f8:	e59310b0 	ldr	r1, [r3, #176]	; 0xb0
 2fc:	e59f20c8 	ldr	r2, [pc, #200]	; 3cc <nand_init+0xd8>
 300:	e92d4010 	push	{r4, lr}
 304:	e1510002 	cmp	r1, r2
 308:	0a00001c 	beq	380 <nand_init+0x8c>
 30c:	e59320b0 	ldr	r2, [r3, #176]	; 0xb0
 310:	e28333b7 	add	r3, r3, #-603979774	; 0xdc000002
 314:	e2833841 	add	r3, r3, #4259840	; 0x410000
 318:	e1520003 	cmp	r2, r3
 31c:	0a000017 	beq	380 <nand_init+0x8c>
 320:	e59f20a8 	ldr	r2, [pc, #168]	; 3d0 <nand_init+0xdc>
 324:	e59f00a8 	ldr	r0, [pc, #168]	; 3d4 <nand_init+0xe0>
 328:	e3a0144e 	mov	r1, #1308622848	; 0x4e000000
 32c:	e5820018 	str	r0, [r2, #24]
 330:	e3a00013 	mov	r0, #19
 334:	e5810004 	str	r0, [r1, #4]
 338:	e59f0098 	ldr	r0, [pc, #152]	; 3d8 <nand_init+0xe4>
 33c:	e59f3098 	ldr	r3, [pc, #152]	; 3dc <nand_init+0xe8>
 340:	e5820004 	str	r0, [r2, #4]
 344:	e59f0094 	ldr	r0, [pc, #148]	; 3e0 <nand_init+0xec>
 348:	e5823000 	str	r3, [r2]
 34c:	e5820008 	str	r0, [r2, #8]
 350:	e59f008c 	ldr	r0, [pc, #140]	; 3e4 <nand_init+0xf0>
 354:	e582000c 	str	r0, [r2, #12]
 358:	e59f0088 	ldr	r0, [pc, #136]	; 3e8 <nand_init+0xf4>
 35c:	e5820010 	str	r0, [r2, #16]
 360:	e59f0084 	ldr	r0, [pc, #132]	; 3ec <nand_init+0xf8>
 364:	e5820014 	str	r0, [r2, #20]
 368:	e3a00c03 	mov	r0, #768	; 0x300
 36c:	e5810000 	str	r0, [r1]
 370:	e1a0e00f 	mov	lr, pc
 374:	e12fff13 	bx	r3
 378:	e8bd4010 	pop	{r4, lr}
 37c:	e12fff1e 	bx	lr
 380:	e59f2048 	ldr	r2, [pc, #72]	; 3d0 <nand_init+0xdc>
 384:	e59f1064 	ldr	r1, [pc, #100]	; 3f0 <nand_init+0xfc>
 388:	e59f0064 	ldr	r0, [pc, #100]	; 3f4 <nand_init+0x100>
 38c:	e5821018 	str	r1, [r2, #24]
 390:	e3a0144e 	mov	r1, #1308622848	; 0x4e000000
 394:	e5810000 	str	r0, [r1]
 398:	e59f1058 	ldr	r1, [pc, #88]	; 3f8 <nand_init+0x104>
 39c:	e59f3058 	ldr	r3, [pc, #88]	; 3fc <nand_init+0x108>
 3a0:	e5821004 	str	r1, [r2, #4]
 3a4:	e59f1054 	ldr	r1, [pc, #84]	; 400 <nand_init+0x10c>
 3a8:	e5823000 	str	r3, [r2]
 3ac:	e5821008 	str	r1, [r2, #8]
 3b0:	e59f104c 	ldr	r1, [pc, #76]	; 404 <nand_init+0x110>
 3b4:	e582100c 	str	r1, [r2, #12]
 3b8:	e59f1048 	ldr	r1, [pc, #72]	; 408 <nand_init+0x114>
 3bc:	e5821010 	str	r1, [r2, #16]
 3c0:	e59f1044 	ldr	r1, [pc, #68]	; 40c <nand_init+0x118>
 3c4:	e5821014 	str	r1, [r2, #20]
 3c8:	eaffffe8 	b	370 <nand_init+0x7c>
 3cc:	32410000 	subcc	r0, r1, #0
 3d0:	000004d0 	ldrdeq	r0, [r0], -r0
 3d4:	000002e4 	andeq	r0, r0, r4, ror #5
 3d8:	0000025c 	andeq	r0, r0, ip, asr r2
 3dc:	00000218 	andeq	r0, r0, r8, lsl r2
 3e0:	00000274 	andeq	r0, r0, r4, ror r2
 3e4:	00000288 	andeq	r0, r0, r8, lsl #5
 3e8:	0000029c 	muleq	r0, ip, r2
 3ec:	000002b0 	undefined instruction 0x000002b0
 3f0:	00000208 	andeq	r0, r0, r8, lsl #4
 3f4:	00009830 	andeq	r9, r0, r0, lsr r8
 3f8:	00000180 	andeq	r0, r0, r0, lsl #3
 3fc:	0000013c 	andeq	r0, r0, ip, lsr r1
 400:	00000198 	muleq	r0, r8, r1
 404:	000001ac 	andeq	r0, r0, ip, lsr #3
 408:	000001c0 	andeq	r0, r0, r0, asr #3
 40c:	000001d4 	ldrdeq	r0, [r0], -r4

00000410 <nand_read>:
 410:	e1a03b81 	lsl	r3, r1, #23
 414:	e1a03ba3 	lsr	r3, r3, #23
 418:	e3530000 	cmp	r3, #0
 41c:	e92d41f0 	push	{r4, r5, r6, r7, r8, lr}
 420:	e1a04000 	mov	r4, r0
 424:	1a000003 	bne	438 <nand_read+0x28>
 428:	e1a03b82 	lsl	r3, r2, #23
 42c:	e1a03ba3 	lsr	r3, r3, #23
 430:	e3530000 	cmp	r3, #0
 434:	0a000001 	beq	440 <nand_read+0x30>
 438:	e8bd41f0 	pop	{r4, r5, r6, r7, r8, lr}
 43c:	e12fff1e 	bx	lr
 440:	e1a07001 	mov	r7, r1
 444:	e0828001 	add	r8, r2, r1
 448:	e59f607c 	ldr	r6, [pc, #124]	; 4cc <nand_read+0xbc>
 44c:	e596c008 	ldr	ip, [r6, #8]
 450:	e1a0e00f 	mov	lr, pc
 454:	e12fff1c 	bx	ip
 458:	e1580007 	cmp	r8, r7
 45c:	9a000016 	bls	4bc <nand_read+0xac>
 460:	e3a00000 	mov	r0, #0
 464:	e596c010 	ldr	ip, [r6, #16]
 468:	e1a0e00f 	mov	lr, pc
 46c:	e12fff1c 	bx	ip
 470:	e1a00007 	mov	r0, r7
 474:	e596c014 	ldr	ip, [r6, #20]
 478:	e1a0e00f 	mov	lr, pc
 47c:	e12fff1c 	bx	ip
 480:	e596c004 	ldr	ip, [r6, #4]
 484:	e1a0e00f 	mov	lr, pc
 488:	e12fff1c 	bx	ip
 48c:	e3a05000 	mov	r5, #0
 490:	e596c018 	ldr	ip, [r6, #24]
 494:	e1a0e00f 	mov	lr, pc
 498:	e12fff1c 	bx	ip
 49c:	e7c40005 	strb	r0, [r4, r5]
 4a0:	e2855001 	add	r5, r5, #1
 4a4:	e3550c02 	cmp	r5, #512	; 0x200
 4a8:	1afffff8 	bne	490 <nand_read+0x80>
 4ac:	e2877c02 	add	r7, r7, #512	; 0x200
 4b0:	e1580007 	cmp	r8, r7
 4b4:	e2844c02 	add	r4, r4, #512	; 0x200
 4b8:	8affffe8 	bhi	460 <nand_read+0x50>
 4bc:	e596c00c 	ldr	ip, [r6, #12]
 4c0:	e1a0e00f 	mov	lr, pc
 4c4:	e12fff1c 	bx	ip
 4c8:	eaffffda 	b	438 <nand_read+0x28>
 4cc:	000004d0 	ldrdeq	r0, [r0], -r0

000004d0 <nand_chip>:
	...
 4ec:	00002941 	andeq	r2, r0, r1, asr #18
 4f0:	61656100 	cmnvs	r5, r0, lsl #2
 4f4:	01006962 	tsteq	r0, r2, ror #18
 4f8:	0000001f 	andeq	r0, r0, pc, lsl r0
 4fc:	00543405 	subseq	r3, r4, r5, lsl #8
 500:	01080206 	tsteq	r8, r6, lsl #4
 504:	04120109 	ldreq	r0, [r2], #-265	; 0x109
 508:	01150114 	tsteq	r5, r4, lsl r1
 50c:	01180317 	tsteq	r8, r7, lsl r3
 510:	021a0119 	andseq	r0, sl, #1073741830	; 0x40000006
 514:	Address 0x00000514 is out of bounds.


Disassembly of section second:

30000000 <wait>:
30000000:	e12fff1e 	bx	lr

30000004 <main>:
30000004:	e3a03b55 	mov	r3, #87040	; 0x15400
30000008:	e3a01456 	mov	r1, #1442840576	; 0x56000000
3000000c:	e5813010 	str	r3, [r1, #16]
30000010:	e2433b55 	sub	r3, r3, #87040	; 0x15400
30000014:	e1e02283 	mvn	r2, r3, lsl #5
30000018:	e353000f 	cmp	r3, #15
3000001c:	e5812014 	str	r2, [r1, #20]
30000020:	12833001 	addne	r3, r3, #1
30000024:	03a03000 	moveq	r3, #0
30000028:	eafffff9 	b	30000014 <main+0x10>
3000002c:	3a434347 	bcc	310d0d50 <my_puts+0x10d0c9c>
30000030:	74632820 	strbtvc	r2, [r3], #-2080	; 0x820
30000034:	312d676e 	teqcc	sp, lr, ror #14
30000038:	312e362e 	teqcc	lr, lr, lsr #12
3000003c:	2e342029 	cdpcs	0, 3, cr2, cr4, cr9, {1}
30000040:	00332e34 	eorseq	r2, r3, r4, lsr lr
30000044:	00002941 	andeq	r2, r0, r1, asr #18
30000048:	61656100 	cmnvs	r5, r0, lsl #2
3000004c:	01006962 	tsteq	r0, r2, ror #18
30000050:	0000001f 	andeq	r0, r0, pc, lsl r0
30000054:	00543405 	subseq	r3, r4, r5, lsl #8
30000058:	01080206 	tsteq	r8, r6, lsl #4
3000005c:	04120109 	ldreq	r0, [r2], #-265	; 0x109
30000060:	01150114 	tsteq	r5, r4, lsl r1
30000064:	01180317 	tsteq	r8, r7, lsl r3
30000068:	021a0119 	andseq	r0, sl, #1073741830	; 0x40000006
3000006c:	Address 0x3000006c is out of bounds.


Disassembly of section .text:

30000070 <uart0_init>:
30000070:	e3a02456 	mov	r2, #1442840576	; 0x56000000
30000074:	e5920070 	ldr	r0, [r2, #112]	; 0x70
30000078:	e3a03205 	mov	r3, #1342177280	; 0x50000000
3000007c:	e38000a0 	orr	r0, r0, #160	; 0xa0
30000080:	e5820070 	str	r0, [r2, #112]	; 0x70
30000084:	e3a0000c 	mov	r0, #12
30000088:	e5820078 	str	r0, [r2, #120]	; 0x78
3000008c:	e3a02003 	mov	r2, #3
30000090:	e5832000 	str	r2, [r3]
30000094:	e3a02005 	mov	r2, #5
30000098:	e5832004 	str	r2, [r3, #4]
3000009c:	e3a01000 	mov	r1, #0
300000a0:	e3a0201a 	mov	r2, #26
300000a4:	e5831008 	str	r1, [r3, #8]
300000a8:	e583100c 	str	r1, [r3, #12]
300000ac:	e5832028 	str	r2, [r3, #40]	; 0x28
300000b0:	e12fff1e 	bx	lr

300000b4 <my_puts>:
300000b4:	e5d03000 	ldrb	r3, [r0]
300000b8:	e3530000 	cmp	r3, #0
300000bc:	012fff1e 	bxeq	lr
300000c0:	e3a01205 	mov	r1, #1342177280	; 0x50000000
300000c4:	e5912010 	ldr	r2, [r1, #16]
300000c8:	e3120004 	tst	r2, #4
300000cc:	15c13020 	strbne	r3, [r1, #32]
300000d0:	eafffffb 	b	300000c4 <my_puts+0x10>
